target datalayout = "e-m:e-p270:32:32-p271:32:32-p272:64:64-i64:64-i128:128-f80:128-n8:16:32:64-S128"
target triple = "x86_64-pc-linux-gnu"

%struct.H5B_class_t = type { i32, i64, ptr, ptr, ptr, ptr, ptr, ptr, i8, i8, i32, ptr, ptr, ptr, ptr }
%struct.H5O_stab_t = type { i64, i64 }
%struct.H5B_info_t = type { i64, i64 }
%struct.H5_ih_info_t = type { i64, i64 }

@H5B_SNODE = external global [1 x %struct.H5B_class_t], align 16
@.str = private unnamed_addr constant [101 x i8] c"generated/home/dtcxzyw/WorkSpace/Projects/compilers/llvm-opt-benchmark/bench/hdf5/hdf5/src/H5Gstab.c\00", align 1
@H5E_CANTINIT_g = external global i64, align 8
@.str.17 = private unnamed_addr constant [26 x i8] c"iteration operator failed\00", align 1
@__func__.H5G__stab_bh_size = private unnamed_addr constant [18 x i8] c"H5G__stab_bh_size\00", align 1
@H5E_BTREE_g = external global i64, align 8
@H5E_HEAP_g = external global i64, align 8

; Function Attrs: nounwind uwtable
define i32 @H5G__stab_bh_size(ptr noundef %0, ptr noundef %1, ptr noundef %2) #0 {
  %4 = alloca ptr, align 8
  %5 = alloca ptr, align 8
  %6 = alloca ptr, align 8
  %7 = alloca i64, align 8
  %8 = alloca %struct.H5B_info_t, align 8
  %9 = alloca i32, align 4
  %10 = alloca i8, align 1
  store ptr %0, ptr %4, align 8
  store ptr %1, ptr %5, align 8
  store ptr %2, ptr %6, align 8
  store i32 0, ptr %9, align 4
  store i8 0, ptr %10, align 1
  store i64 0, ptr %7, align 8
  %11 = load ptr, ptr %4, align 8
  %12 = load ptr, ptr %5, align 8
  %13 = getelementptr inbounds %struct.H5O_stab_t, ptr %12, i32 0, i32 0
  %14 = load i64, ptr %13, align 8
  %15 = call i32 @H5B_get_info(ptr noundef %11, ptr noundef @H5B_SNODE, i64 noundef %14, ptr noundef %8, ptr noundef @H5G__node_iterate_size, ptr noundef %7)
  %16 = icmp slt i32 %15, 0
  br i1 %16, label %17, label %32

17:                                               ; preds = %3
  br label %18

18:                                               ; preds = %17
  br label %19

19:                                               ; preds = %18
  br label %20

20:                                               ; preds = %19
  %21 = load i64, ptr @H5E_BTREE_g, align 8
  %22 = load i64, ptr @H5E_CANTINIT_g, align 8
  %23 = call i32 (ptr, ptr, i32, i64, i64, ptr, ...) @H5E_printf_stack(ptr noundef @.str, ptr noundef @__func__.H5G__stab_bh_size, i32 noundef 611, i64 noundef %21, i64 noundef %22, ptr noundef @.str.17)
  br label %24

24:                                               ; preds = %20
  store i8 1, ptr %10, align 1
  %25 = load i8, ptr %10, align 1
  %26 = trunc i8 %25 to i1
  %27 = zext i1 %26 to i8
  store i8 %27, ptr %10, align 1
  br label %28

28:                                               ; preds = %24
  br label %29

29:                                               ; preds = %28
  store i32 -1, ptr %9, align 4
  br label %65

30:                                               ; No predecessors!
  br label %31

31:                                               ; preds = %30
  br label %32

32:                                               ; preds = %31, %3
  %33 = load i64, ptr %7, align 8
  %34 = getelementptr inbounds %struct.H5B_info_t, ptr %8, i32 0, i32 0
  %35 = load i64, ptr %34, align 8
  %36 = add i64 %33, %35
  %37 = load ptr, ptr %6, align 8
  %38 = getelementptr inbounds %struct.H5_ih_info_t, ptr %37, i32 0, i32 0
  %39 = load i64, ptr %38, align 8
  %40 = add i64 %39, %36
  store i64 %40, ptr %38, align 8
  %41 = load ptr, ptr %4, align 8
  %42 = load ptr, ptr %5, align 8
  %43 = getelementptr inbounds %struct.H5O_stab_t, ptr %42, i32 0, i32 1
  %44 = load i64, ptr %43, align 8
  %45 = load ptr, ptr %6, align 8
  %46 = getelementptr inbounds %struct.H5_ih_info_t, ptr %45, i32 0, i32 1
  %47 = call i32 @H5HL_heapsize(ptr noundef %41, i64 noundef %44, ptr noundef %46)
  %48 = icmp slt i32 %47, 0
  br i1 %48, label %49, label %64

49:                                               ; preds = %32
  br label %50

50:                                               ; preds = %49
  br label %51

51:                                               ; preds = %50
  br label %52

52:                                               ; preds = %51
  %53 = load i64, ptr @H5E_HEAP_g, align 8
  %54 = load i64, ptr @H5E_CANTINIT_g, align 8
  %55 = call i32 (ptr, ptr, i32, i64, i64, ptr, ...) @H5E_printf_stack(ptr noundef @.str, ptr noundef @__func__.H5G__stab_bh_size, i32 noundef 618, i64 noundef %53, i64 noundef %54, ptr noundef @.str.17)
  br label %56

56:                                               ; preds = %52
  store i8 1, ptr %10, align 1
  %57 = load i8, ptr %10, align 1
  %58 = trunc i8 %57 to i1
  %59 = zext i1 %58 to i8
  store i8 %59, ptr %10, align 1
  br label %60

60:                                               ; preds = %56
  br label %61

61:                                               ; preds = %60
  store i32 -1, ptr %9, align 4
  br label %65

62:                                               ; No predecessors!
  br label %63

63:                                               ; preds = %62
  br label %64

64:                                               ; preds = %63, %32
  br label %65

65:                                               ; preds = %64, %61, %29
  %66 = load i32, ptr %9, align 4
  ret i32 %66
}