; Function Attrs: nounwind uwtable
define range(i32 -1, 1) i32 @H5G__stab_bh_size(ptr noundef %0, ptr nocapture noundef readonly %1, ptr noundef %2) local_unnamed_addr #0 {
  %4 = alloca i64, align 8
  %5 = alloca %struct.H5B_info_t, align 8
  store i64 0, ptr %4, align 8
  %6 = load i64, ptr %1, align 8
  %7 = call i32 @H5B_get_info(ptr noundef %0, ptr noundef nonnull @H5B_SNODE, i64 noundef %6, ptr noundef nonnull %5, ptr noundef nonnull @H5G__node_iterate_size, ptr noundef nonnull %4) #6
  %8 = icmp slt i32 %7, 0
  br i1 %8, label %.sink.split, label %9

9:                                                ; preds = %3
  %10 = load i64, ptr %4, align 8
  %11 = load i64, ptr %5, align 8
  %12 = add i64 %11, %10
  %13 = load i64, ptr %2, align 8
  %14 = add i64 %12, %13
  store i64 %14, ptr %2, align 8
  %15 = getelementptr inbounds i8, ptr %1, i64 8
  %16 = load i64, ptr %15, align 8
  %17 = getelementptr inbounds i8, ptr %2, i64 8
  %18 = call i32 @H5HL_heapsize(ptr noundef %0, i64 noundef %16, ptr noundef nonnull %17) #6
  %19 = icmp slt i32 %18, 0
  br i1 %19, label %.sink.split, label %23

.sink.split:                                      ; preds = %9, %3
  %H5E_HEAP_g.sink = phi ptr [ @H5E_BTREE_g, %3 ], [ @H5E_HEAP_g, %9 ]
  %.sink = phi i32 [ 611, %3 ], [ 618, %9 ]
  %20 = load i64, ptr %H5E_HEAP_g.sink, align 8
  %21 = load i64, ptr @H5E_CANTINIT_g, align 8
  %22 = call i32 (ptr, ptr, i32, i64, i64, ptr, ...) @H5E_printf_stack(ptr noundef nonnull @.str, ptr noundef nonnull @__func__.H5G__stab_bh_size, i32 noundef %.sink, i64 noundef %20, i64 noundef %21, ptr noundef nonnull @.str.17) #6
  br label %23

23:                                               ; preds = %.sink.split, %9
  %.0 = phi i32 [ 0, %9 ], [ -1, %.sink.split ]
  ret i32 %.0
}